#include <math.h>
#include <stdio.h>
#include <stdlib.h>
#include <string.h>

int main()
{
	int a[300]={0},n,num,count=0,i,j;
	scanf("%d",&n);
	num=n;
	for(i=0;i<n;i++)
	{
		scanf("%d",&a[count]);
		for(j=0;j<count;j++)
		{
			if(a[j]==a[count])
			{
				num--;
				break;
			}
		}
		if(j==count)
		{
			count++;
		}
	}
	for(i=0;i<num-1;i++)
		printf("%d,",a[i]);
	printf("%d\n",a[num-1]);


	return 0;
}

 
