; ModuleID = 'source-C-CXX/52/367.c'
source_filename = "source-C-CXX/52/367.c"
target datalayout = "e-m:e-p270:32:32-p271:32:32-p272:64:64-i64:64-f80:128-n8:16:32:64-S128"
target triple = "x86_64-pc-linux-gnu"

@.str = private unnamed_addr constant [3 x i8] c"%d\00", align 1
@.str.1 = private unnamed_addr constant [4 x i8] c"%d,\00", align 1
@.str.2 = private unnamed_addr constant [4 x i8] c"%d\0A\00", align 1

; Function Attrs: nofree nounwind sspstrong uwtable
define dso_local i32 @main() local_unnamed_addr #0 {
  %1 = alloca [300 x i32], align 16
  %2 = alloca i32, align 4
  %3 = bitcast [300 x i32]* %1 to i8*
  call void @llvm.lifetime.start.p0i8(i64 1200, i8* nonnull %3) #4
  call void @llvm.memset.p0i8.i64(i8* noundef nonnull align 16 dereferenceable(1200) %3, i8 0, i64 1200, i1 false)
  %4 = bitcast i32* %2 to i8*
  call void @llvm.lifetime.start.p0i8(i64 4, i8* nonnull %4) #4
  %5 = call i32 (i8*, ...) @__isoc99_scanf(i8* getelementptr inbounds ([3 x i8], [3 x i8]* @.str, i64 0, i64 0), i32* nonnull %2)
  %6 = load i32, i32* %2, align 4, !tbaa !5
  %7 = icmp sgt i32 %6, 0
  br i1 %7, label %15, label %8

8:                                                ; preds = %0
  %9 = add i32 %6, -1
  br label %52

10:                                               ; preds = %36
  %11 = add i32 %38, -1
  %12 = icmp sgt i32 %38, 1
  br i1 %12, label %13, label %52

13:                                               ; preds = %10
  %14 = zext i32 %11 to i64
  br label %45

15:                                               ; preds = %0, %36
  %16 = phi i32 [ %42, %36 ], [ 0, %0 ]
  %17 = phi i32 [ %41, %36 ], [ 0, %0 ]
  %18 = phi i32 [ %38, %36 ], [ %6, %0 ]
  %19 = zext i32 %17 to i64
  %20 = getelementptr inbounds [300 x i32], [300 x i32]* %1, i64 0, i64 %19
  %21 = call i32 (i8*, ...) @__isoc99_scanf(i8* getelementptr inbounds ([3 x i8], [3 x i8]* @.str, i64 0, i64 0), i32* nonnull %20)
  %22 = icmp eq i32 %17, 0
  br i1 %22, label %36, label %23

23:                                               ; preds = %15
  %24 = load i32, i32* %20, align 4, !tbaa !5
  br label %25

25:                                               ; preds = %23, %33
  %26 = phi i64 [ 0, %23 ], [ %34, %33 ]
  %27 = getelementptr inbounds [300 x i32], [300 x i32]* %1, i64 0, i64 %26
  %28 = load i32, i32* %27, align 4, !tbaa !5
  %29 = icmp eq i32 %28, %24
  br i1 %29, label %30, label %33

30:                                               ; preds = %25
  %31 = trunc i64 %26 to i32
  %32 = add nsw i32 %18, -1
  br label %36

33:                                               ; preds = %25
  %34 = add nuw nsw i64 %26, 1
  %35 = icmp eq i64 %34, %19
  br i1 %35, label %36, label %25, !llvm.loop !9

36:                                               ; preds = %33, %15, %30
  %37 = phi i32 [ %31, %30 ], [ 0, %15 ], [ %17, %33 ]
  %38 = phi i32 [ %32, %30 ], [ %18, %15 ], [ %18, %33 ]
  %39 = icmp eq i32 %37, %17
  %40 = zext i1 %39 to i32
  %41 = add nuw nsw i32 %17, %40
  %42 = add nuw nsw i32 %16, 1
  %43 = load i32, i32* %2, align 4, !tbaa !5
  %44 = icmp slt i32 %42, %43
  br i1 %44, label %15, label %10, !llvm.loop !11

45:                                               ; preds = %13, %45
  %46 = phi i64 [ 0, %13 ], [ %50, %45 ]
  %47 = getelementptr inbounds [300 x i32], [300 x i32]* %1, i64 0, i64 %46
  %48 = load i32, i32* %47, align 4, !tbaa !5
  %49 = call i32 (i8*, ...) @printf(i8* nonnull dereferenceable(1) getelementptr inbounds ([4 x i8], [4 x i8]* @.str.1, i64 0, i64 0), i32 %48)
  %50 = add nuw nsw i64 %46, 1
  %51 = icmp eq i64 %50, %14
  br i1 %51, label %52, label %45, !llvm.loop !12

52:                                               ; preds = %45, %8, %10
  %53 = phi i32 [ %9, %8 ], [ %11, %10 ], [ %11, %45 ]
  %54 = sext i32 %53 to i64
  %55 = getelementptr inbounds [300 x i32], [300 x i32]* %1, i64 0, i64 %54
  %56 = load i32, i32* %55, align 4, !tbaa !5
  %57 = call i32 (i8*, ...) @printf(i8* nonnull dereferenceable(1) getelementptr inbounds ([4 x i8], [4 x i8]* @.str.2, i64 0, i64 0), i32 %56)
  call void @llvm.lifetime.end.p0i8(i64 4, i8* nonnull %4) #4
  call void @llvm.lifetime.end.p0i8(i64 1200, i8* nonnull %3) #4
  ret i32 0
}

; Function Attrs: argmemonly mustprogress nofree nosync nounwind willreturn
declare void @llvm.lifetime.start.p0i8(i64 immarg, i8* nocapture) #1

; Function Attrs: argmemonly mustprogress nofree nounwind willreturn writeonly
declare void @llvm.memset.p0i8.i64(i8* nocapture writeonly, i8, i64, i1 immarg) #2

; Function Attrs: nofree nounwind
declare noundef i32 @__isoc99_scanf(i8* nocapture noundef readonly, ...) local_unnamed_addr #3

; Function Attrs: nofree nounwind
declare noundef i32 @printf(i8* nocapture noundef readonly, ...) local_unnamed_addr #3

; Function Attrs: argmemonly mustprogress nofree nosync nounwind willreturn
declare void @llvm.lifetime.end.p0i8(i64 immarg, i8* nocapture) #1


!llvm.module.flags = !{!0, !1, !2, !3}
!llvm.ident = !{!4}

!0 = !{i32 1, !"wchar_size", i32 4}
!1 = !{i32 7, !"PIC Level", i32 2}
!2 = !{i32 7, !"PIE Level", i32 2}
!3 = !{i32 7, !"uwtable", i32 1}
!4 = !{!"clang version 13.0.0"}
!5 = !{!6, !6, i64 0}
!6 = !{!"int", !7, i64 0}
!7 = !{!"omnipotent char", !8, i64 0}
!8 = !{!"Simple C/C++ TBAA"}
!9 = distinct !{!9, !10}
!10 = !{!"llvm.loop.mustprogress"}
!11 = distinct !{!11, !10}
!12 = distinct !{!12, !10}
